; Function Attrs: mustprogress nounwind uwtable
define internal fastcc void @_ZNSt16allocator_traitsISaIN9grpc_core12_GLOBAL__N_112OldPickFirst14SubchannelList14SubchannelDataEEE7destroyIS4_EEvRS5_PT_(ptr noundef readonly captures(none) %0) unnamed_addr #19 align 2 personality ptr @__gxx_personality_v0 {
  %2 = getelementptr inbounds nuw i8, ptr %0, i64 40
  %3 = load i64, ptr %2, align 8, !tbaa !163
  %4 = and i64 %3, 1
  %.not.i.i.i.i = icmp eq i64 %4, 0
  br i1 %.not.i.i.i.i, label %5, label %_ZN4absl12lts_202407226StatusD2Ev.exit.i.i

5:                                                ; preds = %1
  %6 = inttoptr i64 %3 to ptr
  invoke void @_ZNK4absl12lts_2024072215status_internal9StatusRep5UnrefEv(ptr noundef nonnull align 8 dereferenceable(48) %6)
          to label %_ZN4absl12lts_202407226StatusD2Ev.exit.i.i unwind label %7

7:                                                ; preds = %5
  %8 = landingpad { ptr, i32 }
          catch ptr null
  %9 = extractvalue { ptr, i32 } %8, 0
  tail call void @__clang_call_terminate(ptr %9) #40
  unreachable

_ZN4absl12lts_202407226StatusD2Ev.exit.i.i:       ; preds = %5, %1
  %10 = getelementptr inbounds nuw i8, ptr %0, i64 16
  %11 = load ptr, ptr %10, align 8, !tbaa !219
  %.not.i.i.i = icmp eq ptr %11, null
  br i1 %.not.i.i.i, label %_ZNSt15__new_allocatorIN9grpc_core12_GLOBAL__N_112OldPickFirst14SubchannelList14SubchannelDataEE7destroyIS4_EEvPT_.exit, label %12

12:                                               ; preds = %_ZN4absl12lts_202407226StatusD2Ev.exit.i.i
  %13 = getelementptr inbounds nuw i8, ptr %11, i64 8
  %14 = atomicrmw add ptr %13, i64 -4294967295 acq_rel, align 8
  %.mask.i.i.i.i = and i64 %14, -4294967296
  %15 = icmp eq i64 %.mask.i.i.i.i, 4294967296
  br i1 %15, label %16, label %.noexc.i.i.i, !prof !35

16:                                               ; preds = %12
  %17 = load ptr, ptr %11, align 8, !tbaa !6
  %18 = getelementptr inbounds nuw i8, ptr %17, i64 16
  %19 = load ptr, ptr %18, align 8
  invoke void %19(ptr noundef nonnull align 8 dereferenceable(16) %11)
          to label %.noexc.i.i.i unwind label %26

.noexc.i.i.i:                                     ; preds = %16, %12
  %20 = atomicrmw sub ptr %13, i64 1 acq_rel, align 8
  %21 = icmp eq i64 %20, 1
  br i1 %21, label %22, label %_ZNSt15__new_allocatorIN9grpc_core12_GLOBAL__N_112OldPickFirst14SubchannelList14SubchannelDataEE7destroyIS4_EEvPT_.exit, !prof !35

22:                                               ; preds = %.noexc.i.i.i
  %23 = load ptr, ptr %11, align 8, !tbaa !6
  %24 = getelementptr inbounds nuw i8, ptr %23, i64 8
  %25 = load ptr, ptr %24, align 8
  tail call void %25(ptr noundef nonnull align 8 dereferenceable(16) %11) #37
  br label %_ZNSt15__new_allocatorIN9grpc_core12_GLOBAL__N_112OldPickFirst14SubchannelList14SubchannelDataEE7destroyIS4_EEvPT_.exit

26:                                               ; preds = %16
  %27 = landingpad { ptr, i32 }
          catch ptr null
  %28 = extractvalue { ptr, i32 } %27, 0
  tail call void @__clang_call_terminate(ptr %28) #40
  unreachable

_ZNSt15__new_allocatorIN9grpc_core12_GLOBAL__N_112OldPickFirst14SubchannelList14SubchannelDataEE7destroyIS4_EEvPT_.exit: ; preds = %_ZN4absl12lts_202407226StatusD2Ev.exit.i.i, %.noexc.i.i.i, %22
  ret void
}